target datalayout = "e-m:e-p270:32:32-p271:32:32-p272:64:64-i64:64-i128:128-f80:128-n8:16:32:64-S128"
target triple = "x86_64-unknown-linux-gnu"

%"class.llvh::MD5" = type { i32, i32, i32, i32, i32, i32, [64 x i8], [16 x i32] }

; Function Attrs: mustprogress nounwind uwtable
define hidden void @_ZN4llvh3MD5C2Ev(ptr noundef nonnull align 4 dereferenceable(152) %this) unnamed_addr #0 align 2 {
entry:
  %this.addr = alloca ptr, align 8
  store ptr %this, ptr %this.addr, align 8
  %this1 = load ptr, ptr %this.addr, align 8
  %a = getelementptr inbounds %"class.llvh::MD5", ptr %this1, i32 0, i32 0
  store i32 1732584193, ptr %a, align 4
  %b = getelementptr inbounds %"class.llvh::MD5", ptr %this1, i32 0, i32 1
  store i32 -271733879, ptr %b, align 4
  %c = getelementptr inbounds %"class.llvh::MD5", ptr %this1, i32 0, i32 2
  store i32 -1732584194, ptr %c, align 4
  %d = getelementptr inbounds %"class.llvh::MD5", ptr %this1, i32 0, i32 3
  store i32 271733878, ptr %d, align 4
  %hi = getelementptr inbounds %"class.llvh::MD5", ptr %this1, i32 0, i32 4
  store i32 0, ptr %hi, align 4
  %lo = getelementptr inbounds %"class.llvh::MD5", ptr %this1, i32 0, i32 5
  store i32 0, ptr %lo, align 4
  ret void
}