; Function Attrs: mustprogress nofree norecurse nosync nounwind willreturn memory(argmem: write) uwtable
define hidden void @_ZN4llvh3MD5C2Ev(ptr nocapture noundef nonnull writeonly align 4 dereferenceable(152) %this) unnamed_addr #1 align 2 {
entry:
  store <4 x i32> <i32 1732584193, i32 -271733879, i32 -1732584194, i32 271733878>, ptr %this, align 4
  %hi = getelementptr inbounds i8, ptr %this, i64 16
  store i32 0, ptr %hi, align 4
  %lo = getelementptr inbounds i8, ptr %this, i64 20
  store i32 0, ptr %lo, align 4
  ret void
}